target datalayout = "e-m:e-p270:32:32-p271:32:32-p272:64:64-i64:64-i128:128-f80:128-n8:16:32:64-S128"
target triple = "x86_64-pc-linux-gnu"

%struct.VP8Encoder = type { ptr, ptr, %struct.VP8EncFilterHeader, %struct.VP8EncSegmentHeader, i32, i32, i32, i32, i32, %struct.VP8BitWriter, [8 x %struct.VP8BitWriter], %struct.VP8TBuffer, i32, i32, ptr, i32, %struct.WebPWorker, [4 x %struct.VP8SegmentInfo], i32, i32, i32, i32, i32, i32, i32, i32, %struct.VP8EncProba, [4 x i64], i64, i32, [3 x [4 x i32]], [3 x i32], i32, i32, i32, i32, i32, i32, i32, ptr, ptr, ptr, ptr, ptr, ptr, ptr }
%struct.VP8EncFilterHeader = type { i32, i32, i32, i32 }
%struct.VP8EncSegmentHeader = type { i32, i32, i32 }
%struct.VP8BitWriter = type { i32, i32, i32, i32, ptr, i64, i64, i32 }
%struct.VP8TBuffer = type { ptr, ptr, ptr, i32, i32, i32 }
%struct.WebPWorker = type { ptr, i32, ptr, ptr, ptr, i32 }
%struct.VP8SegmentInfo = type { %struct.VP8Matrix, %struct.VP8Matrix, %struct.VP8Matrix, i32, i32, i32, i32, i32, i32, i32, i32, i32, i32, i32, i32, i32, i32, i32, i64 }
%struct.VP8Matrix = type { [16 x i16], [16 x i16], [16 x i32], [16 x i32], [16 x i16] }
%struct.VP8EncProba = type { [3 x i8], i8, [4 x [8 x [3 x [11 x i8]]]], [4 x [8 x [3 x [11 x i32]]]], [4 x [8 x [3 x [68 x i16]]]], [4 x [16 x [3 x ptr]]], i32, i32, i32 }
%struct.WebPWorkerInterface = type { ptr, ptr, ptr, ptr, ptr, ptr }

; Function Attrs: nounwind uwtable
define hidden i32 @VP8EncDeleteAlpha(ptr noundef %0) #0 {
  %2 = alloca ptr, align 8
  %3 = alloca i32, align 4
  %4 = alloca ptr, align 8
  store ptr %0, ptr %2, align 8, !tbaa !3
  call void @llvm.lifetime.start.p0(i64 4, ptr %3) #6
  store i32 1, ptr %3, align 4, !tbaa !43
  %5 = load ptr, ptr %2, align 8, !tbaa !3
  %6 = getelementptr inbounds nuw %struct.VP8Encoder, ptr %5, i32 0, i32 36
  %7 = load i32, ptr %6, align 8, !tbaa !29
  %8 = icmp sgt i32 %7, 0
  br i1 %8, label %9, label %21

9:                                                ; preds = %1
  call void @llvm.lifetime.start.p0(i64 8, ptr %4) #6
  %10 = load ptr, ptr %2, align 8, !tbaa !3
  %11 = getelementptr inbounds nuw %struct.VP8Encoder, ptr %10, i32 0, i32 16
  store ptr %11, ptr %4, align 8, !tbaa !30
  %12 = call ptr @WebPGetWorkerInterface()
  %13 = getelementptr inbounds nuw %struct.WebPWorkerInterface, ptr %12, i32 0, i32 2
  %14 = load ptr, ptr %13, align 8, !tbaa !49
  %15 = load ptr, ptr %4, align 8, !tbaa !30
  %16 = call i32 %14(ptr noundef %15)
  store i32 %16, ptr %3, align 4, !tbaa !43
  %17 = call ptr @WebPGetWorkerInterface()
  %18 = getelementptr inbounds nuw %struct.WebPWorkerInterface, ptr %17, i32 0, i32 5
  %19 = load ptr, ptr %18, align 8, !tbaa !51
  %20 = load ptr, ptr %4, align 8, !tbaa !30
  call void %19(ptr noundef %20)
  call void @llvm.lifetime.end.p0(i64 8, ptr %4) #6
  br label %21

21:                                               ; preds = %9, %1
  %22 = load ptr, ptr %2, align 8, !tbaa !3
  %23 = getelementptr inbounds nuw %struct.VP8Encoder, ptr %22, i32 0, i32 14
  %24 = load ptr, ptr %23, align 8, !tbaa !27
  call void @WebPSafeFree(ptr noundef %24)
  %25 = load ptr, ptr %2, align 8, !tbaa !3
  %26 = getelementptr inbounds nuw %struct.VP8Encoder, ptr %25, i32 0, i32 14
  store ptr null, ptr %26, align 8, !tbaa !27
  %27 = load ptr, ptr %2, align 8, !tbaa !3
  %28 = getelementptr inbounds nuw %struct.VP8Encoder, ptr %27, i32 0, i32 15
  store i32 0, ptr %28, align 8, !tbaa !28
  %29 = load ptr, ptr %2, align 8, !tbaa !3
  %30 = getelementptr inbounds nuw %struct.VP8Encoder, ptr %29, i32 0, i32 13
  store i32 0, ptr %30, align 4, !tbaa !26
  %31 = load i32, ptr %3, align 4, !tbaa !43
  call void @llvm.lifetime.end.p0(i64 4, ptr %3) #6
  ret i32 %31
}