; Function Attrs: nounwind uwtable
define hidden i32 @VP8EncDeleteAlpha(ptr noundef %0) local_unnamed_addr #0 {
  %2 = getelementptr inbounds nuw i8, ptr %0, i64 23632
  %3 = load i32, ptr %2, align 8, !tbaa !27
  %4 = icmp sgt i32 %3, 0
  br i1 %4, label %5, label %14

5:                                                ; preds = %1
  %6 = getelementptr inbounds nuw i8, ptr %0, i64 560
  %7 = tail call ptr @WebPGetWorkerInterface() #5
  %8 = getelementptr inbounds nuw i8, ptr %7, i64 16
  %9 = load ptr, ptr %8, align 8, !tbaa !83
  %10 = tail call i32 %9(ptr noundef nonnull %6) #5
  %11 = tail call ptr @WebPGetWorkerInterface() #5
  %12 = getelementptr inbounds nuw i8, ptr %11, i64 40
  %13 = load ptr, ptr %12, align 8, !tbaa !85
  tail call void %13(ptr noundef nonnull %6) #5
  br label %14

14:                                               ; preds = %5, %1
  %.0 = phi i32 [ %10, %5 ], [ 1, %1 ]
  %15 = getelementptr inbounds nuw i8, ptr %0, i64 544
  %16 = load ptr, ptr %15, align 8, !tbaa !25
  tail call void @WebPSafeFree(ptr noundef %16) #5
  %17 = getelementptr inbounds nuw i8, ptr %0, i64 540
  tail call void @llvm.memset.p0.i64(ptr noundef nonnull align 4 dereferenceable(16) %17, i8 0, i64 16, i1 false)
  ret i32 %.0
}